; Function Attrs: nofree norecurse nosync nounwind memory(argmem: readwrite) uwtable
define dso_local range(i32 0, 2) i32 @hllDenseAdd(ptr noundef captures(none) %0, ptr noundef captures(address) %1, i64 noundef %2) local_unnamed_addr #2 {
  %4 = alloca i64, align 8
  call void @llvm.lifetime.start.p0(i64 8, ptr nonnull %4) #20
  %5 = call i32 @hllPatLen(ptr noundef %1, i64 noundef %2, ptr noundef nonnull %4)
  %6 = load i64, ptr %4, align 8, !tbaa !5
  %7 = mul nsw i64 %6, 6
  %8 = sdiv i64 %7, 8
  %9 = and i64 %7, 6
  %10 = sub nuw nsw i64 8, %9
  %11 = getelementptr inbounds nuw i8, ptr %0, i64 %8
  %12 = load i8, ptr %11, align 1, !tbaa !11
  %13 = zext i8 %12 to i64
  %14 = getelementptr i8, ptr %11, i64 1
  %15 = load i8, ptr %14, align 1, !tbaa !11
  %16 = zext i8 %15 to i64
  %17 = lshr i64 %13, %9
  %18 = shl nuw nsw i64 %16, %10
  %19 = or i64 %18, %17
  %20 = trunc nuw nsw i64 %19 to i32
  %21 = and i32 %20, 63
  %22 = icmp samesign ult i32 %21, %5
  br i1 %22, label %23, label %hllDenseSet.exit

23:                                               ; preds = %3
  %24 = zext nneg i32 %5 to i64
  %25 = trunc nuw nsw i64 %9 to i8
  %26 = shl i8 63, %25
  %27 = xor i8 %26, -1
  %28 = and i8 %12, %27
  %29 = shl nuw nsw i64 %24, %9
  %30 = trunc i64 %29 to i8
  %31 = or i8 %28, %30
  store i8 %31, ptr %11, align 1, !tbaa !11
  %32 = trunc nuw nsw i64 %10 to i16
  %33 = ashr i16 -64, %32
  %34 = trunc nsw i16 %33 to i8
  %35 = and i8 %15, %34
  %36 = lshr i64 %24, %10
  %37 = trunc nuw nsw i64 %36 to i8
  %38 = or i8 %35, %37
  store i8 %38, ptr %14, align 1, !tbaa !11
  br label %hllDenseSet.exit

hllDenseSet.exit:                                 ; preds = %3, %23
  %.0.i = phi i32 [ 1, %23 ], [ 0, %3 ]
  call void @llvm.lifetime.end.p0(i64 8, ptr nonnull %4) #20
  ret i32 %.0.i
}